target datalayout = "e-m:e-p270:32:32-p271:32:32-p272:64:64-i64:64-i128:128-f80:128-n8:16:32:64-S128"
target triple = "x86_64-pc-linux-gnu"

; Function Attrs: norecurse uwtable
define internal void @_ZNK5faiss20IndexBinaryMultiHash6searchElPKhlPiPlPKNS_16SearchParametersE.omp_outlined.omp.reduction.reduction_func(ptr noundef %0, ptr noundef %1) #15 {
  %3 = alloca ptr, align 8
  %4 = alloca ptr, align 8
  store ptr %0, ptr %3, align 8
  store ptr %1, ptr %4, align 8
  %5 = load ptr, ptr %3, align 8
  %6 = load ptr, ptr %4, align 8
  %7 = getelementptr inbounds [3 x ptr], ptr %6, i64 0, i64 0
  %8 = load ptr, ptr %7, align 8
  %9 = getelementptr inbounds [3 x ptr], ptr %5, i64 0, i64 0
  %10 = load ptr, ptr %9, align 8
  %11 = getelementptr inbounds [3 x ptr], ptr %6, i64 0, i64 1
  %12 = load ptr, ptr %11, align 8
  %13 = getelementptr inbounds [3 x ptr], ptr %5, i64 0, i64 1
  %14 = load ptr, ptr %13, align 8
  %15 = getelementptr inbounds [3 x ptr], ptr %6, i64 0, i64 2
  %16 = load ptr, ptr %15, align 8
  %17 = getelementptr inbounds [3 x ptr], ptr %5, i64 0, i64 2
  %18 = load ptr, ptr %17, align 8
  %19 = load i64, ptr %10, align 8
  %20 = load i64, ptr %8, align 8
  %21 = add i64 %19, %20
  store i64 %21, ptr %10, align 8
  %22 = load i64, ptr %14, align 8
  %23 = load i64, ptr %12, align 8
  %24 = add i64 %22, %23
  store i64 %24, ptr %14, align 8
  %25 = load i64, ptr %18, align 8
  %26 = load i64, ptr %16, align 8
  %27 = add i64 %25, %26
  store i64 %27, ptr %18, align 8
  ret void
}