; Function Attrs: mustprogress nofree norecurse nosync nounwind willreturn memory(readwrite, inaccessiblemem: none) uwtable
define internal void @_ZNK5faiss20IndexBinaryMultiHash6searchElPKhlPiPlPKNS_16SearchParametersE.omp_outlined.omp.reduction.reduction_func(ptr nocapture noundef readonly %0, ptr nocapture noundef readonly %1) #14 {
  %3 = load ptr, ptr %1, align 8
  %4 = load ptr, ptr %0, align 8
  %5 = getelementptr inbounds i8, ptr %1, i64 8
  %6 = load ptr, ptr %5, align 8
  %7 = getelementptr inbounds i8, ptr %0, i64 8
  %8 = load ptr, ptr %7, align 8
  %9 = getelementptr inbounds i8, ptr %1, i64 16
  %10 = load ptr, ptr %9, align 8
  %11 = getelementptr inbounds i8, ptr %0, i64 16
  %12 = load ptr, ptr %11, align 8
  %13 = load i64, ptr %4, align 8
  %14 = load i64, ptr %3, align 8
  %15 = add i64 %14, %13
  store i64 %15, ptr %4, align 8
  %16 = load i64, ptr %8, align 8
  %17 = load i64, ptr %6, align 8
  %18 = add i64 %17, %16
  store i64 %18, ptr %8, align 8
  %19 = load i64, ptr %12, align 8
  %20 = load i64, ptr %10, align 8
  %21 = add i64 %20, %19
  store i64 %21, ptr %12, align 8
  ret void
}